target datalayout = "e-m:e-p270:32:32-p271:32:32-p272:64:64-i64:64-i128:128-f80:128-n8:16:32:64-S128"
target triple = "x86_64-pc-linux-gnu"

%"class.euf::solve_eqs" = type { %class.dependent_expr_simplifier, %"struct.euf::solve_eqs::stats", %"struct.euf::solve_eqs::config", %class.th_rewriter, %class.scoped_ptr_vector, %class.svector, %class.ptr_vector.1, %class.svector, %class.svector, %class.vector.3, %class.scoped_ptr, %class.obj_mark, %class.ptr_vector.4, %class.obj_mark, %class.obj_map }
%class.dependent_expr_simplifier = type { ptr, ptr, ptr, ptr }
%"struct.euf::solve_eqs::stats" = type { i32, i32 }
%"struct.euf::solve_eqs::config" = type { i8, i32 }
%class.th_rewriter = type { ptr, %class.params_ref }
%class.params_ref = type { ptr }
%class.scoped_ptr_vector = type { %class.ptr_vector }
%class.ptr_vector = type { %class.vector }
%class.vector = type { ptr }
%class.ptr_vector.1 = type { %class.vector.2 }
%class.vector.2 = type { ptr }
%class.svector = type { %class.vector.0 }
%class.vector.0 = type { ptr }
%class.vector.3 = type { ptr }
%class.scoped_ptr = type { ptr }
%class.ptr_vector.4 = type { %class.vector.5 }
%class.vector.5 = type { ptr }
%class.obj_mark = type { [8 x i8], %class.bit_vector }
%class.bit_vector = type { i32, i32, ptr }
%class.obj_map = type { %class.core_hashtable }
%class.core_hashtable = type <{ ptr, i32, i32, i32, [4 x i8] }>
%class.ast = type { i32, i32, i32, i32 }
%"struct.obj_map<expr, unsigned int>::key_data" = type <{ ptr, i32, [4 x i8] }>
%"class.obj_map<expr, unsigned int>::obj_map_entry" = type { %"struct.obj_map<expr, unsigned int>::key_data" }

; Function Attrs: mustprogress nounwind uwtable
define linkonce_odr hidden noundef zeroext i1 @_ZNK7obj_mapI4exprjE8key_dataeqERKS2_(ptr noundef nonnull align 8 dereferenceable(12) %0, ptr noundef nonnull align 8 dereferenceable(12) %1) #6 comdat align 2 {
  %3 = alloca ptr, align 8
  %4 = alloca ptr, align 8
  store ptr %0, ptr %3, align 8, !tbaa !404
  store ptr %1, ptr %4, align 8, !tbaa !404
  %5 = load ptr, ptr %3, align 8
  %6 = getelementptr inbounds nuw %"struct.obj_map<expr, unsigned int>::key_data", ptr %5, i32 0, i32 0
  %7 = load ptr, ptr %6, align 8, !tbaa !406
  %8 = load ptr, ptr %4, align 8, !tbaa !404
  %9 = getelementptr inbounds nuw %"struct.obj_map<expr, unsigned int>::key_data", ptr %8, i32 0, i32 0
  %10 = load ptr, ptr %9, align 8, !tbaa !406
  %11 = icmp eq ptr %7, %10
  ret i1 %11
}

; Function Attrs: mustprogress nounwind uwtable
define linkonce_odr hidden noundef i32 @_ZNK3ast4hashEv(ptr noundef nonnull align 4 dereferenceable(16) %0) #6 comdat align 2 {
  %2 = alloca ptr, align 8
  store ptr %0, ptr %2, align 8, !tbaa !65
  %3 = load ptr, ptr %2, align 8
  %4 = getelementptr inbounds nuw %class.ast, ptr %3, i32 0, i32 3
  %5 = load i32, ptr %4, align 4, !tbaa !424
  ret i32 %5
}

; Function Attrs: mustprogress uwtable
define linkonce_odr hidden noundef zeroext i1 @_ZNK10default_eqIN7obj_mapI4exprjE8key_dataEEclERKS3_S6_(ptr noundef nonnull align 1 dereferenceable(1) %0, ptr noundef nonnull align 8 dereferenceable(12) %1, ptr noundef nonnull align 8 dereferenceable(12) %2) #4 comdat align 2 {
  %4 = alloca ptr, align 8
  %5 = alloca ptr, align 8
  %6 = alloca ptr, align 8
  store ptr %0, ptr %4, align 8, !tbaa !425
  store ptr %1, ptr %5, align 8, !tbaa !404
  store ptr %2, ptr %6, align 8, !tbaa !404
  %7 = load ptr, ptr %5, align 8, !tbaa !404
  %8 = load ptr, ptr %6, align 8, !tbaa !404
  %9 = call noundef zeroext i1 @_ZNK7obj_mapI4exprjE8key_dataeqERKS2_(ptr noundef nonnull align 8 dereferenceable(12) %7, ptr noundef nonnull align 8 dereferenceable(12) %8)
  ret i1 %9
}

; Function Attrs: mustprogress uwtable
define linkonce_odr hidden noundef i32 @_ZNK7obj_mapI4exprjE8key_data4hashEv(ptr noundef nonnull align 8 dereferenceable(12) %0) #4 comdat align 2 {
  %2 = alloca ptr, align 8
  store ptr %0, ptr %2, align 8, !tbaa !404
  %3 = load ptr, ptr %2, align 8
  %4 = getelementptr inbounds nuw %"struct.obj_map<expr, unsigned int>::key_data", ptr %3, i32 0, i32 0
  %5 = load ptr, ptr %4, align 8, !tbaa !406
  %6 = call noundef i32 @_ZNK3ast4hashEv(ptr noundef nonnull align 4 dereferenceable(16) %5)
  ret i32 %6
}

; Function Attrs: mustprogress uwtable
define linkonce_odr hidden noundef i32 @_ZNK8obj_hashIN7obj_mapI4exprjE8key_dataEEclERKS3_(ptr noundef nonnull align 1 dereferenceable(1) %0, ptr noundef nonnull align 8 dereferenceable(12) %1) #4 comdat align 2 {
  %3 = alloca ptr, align 8
  %4 = alloca ptr, align 8
  store ptr %0, ptr %3, align 8, !tbaa !422
  store ptr %1, ptr %4, align 8, !tbaa !404
  %5 = load ptr, ptr %4, align 8, !tbaa !404
  %6 = call noundef i32 @_ZNK7obj_mapI4exprjE8key_data4hashEv(ptr noundef nonnull align 8 dereferenceable(12) %5)
  ret i32 %6
}

; Function Attrs: mustprogress nounwind uwtable
define linkonce_odr hidden noundef zeroext i1 @_ZNK7obj_mapI4exprjE13obj_map_entry7is_freeEv(ptr noundef nonnull align 8 dereferenceable(16) %0) #6 comdat align 2 {
  %2 = alloca ptr, align 8
  store ptr %0, ptr %2, align 8, !tbaa !209
  %3 = load ptr, ptr %2, align 8
  %4 = getelementptr inbounds nuw %"class.obj_map<expr, unsigned int>::obj_map_entry", ptr %3, i32 0, i32 0
  %5 = getelementptr inbounds nuw %"struct.obj_map<expr, unsigned int>::key_data", ptr %4, i32 0, i32 0
  %6 = load ptr, ptr %5, align 8, !tbaa !416
  %7 = icmp eq ptr %6, null
  ret i1 %7
}

; Function Attrs: mustprogress uwtable
define linkonce_odr hidden noundef zeroext i1 @_ZNK14core_hashtableIN7obj_mapI4exprjE13obj_map_entryE8obj_hashINS2_8key_dataEE10default_eqIS5_EE6equalsERKS5_SB_(ptr noundef nonnull align 8 dereferenceable(20) %0, ptr noundef nonnull align 8 dereferenceable(12) %1, ptr noundef nonnull align 8 dereferenceable(12) %2) #4 comdat align 2 {
  %4 = alloca ptr, align 8
  %5 = alloca ptr, align 8
  %6 = alloca ptr, align 8
  store ptr %0, ptr %4, align 8, !tbaa !402
  store ptr %1, ptr %5, align 8, !tbaa !404
  store ptr %2, ptr %6, align 8, !tbaa !404
  %7 = load ptr, ptr %4, align 8
  %8 = load ptr, ptr %5, align 8, !tbaa !404
  %9 = load ptr, ptr %6, align 8, !tbaa !404
  %10 = call noundef zeroext i1 @_ZNK10default_eqIN7obj_mapI4exprjE8key_dataEEclERKS3_S6_(ptr noundef nonnull align 1 dereferenceable(1) %7, ptr noundef nonnull align 8 dereferenceable(12) %8, ptr noundef nonnull align 8 dereferenceable(12) %9)
  ret i1 %10
}

; Function Attrs: mustprogress uwtable
define linkonce_odr hidden noundef i32 @_ZNK7obj_mapI4exprjE13obj_map_entry8get_hashEv(ptr noundef nonnull align 8 dereferenceable(16) %0) #4 comdat align 2 {
  %2 = alloca ptr, align 8
  store ptr %0, ptr %2, align 8, !tbaa !209
  %3 = load ptr, ptr %2, align 8
  %4 = getelementptr inbounds nuw %"class.obj_map<expr, unsigned int>::obj_map_entry", ptr %3, i32 0, i32 0
  %5 = call noundef i32 @_ZNK7obj_mapI4exprjE8key_data4hashEv(ptr noundef nonnull align 8 dereferenceable(12) %4)
  ret i32 %5
}

; Function Attrs: mustprogress nounwind uwtable
define linkonce_odr hidden noundef zeroext i1 @_ZNK7obj_mapI4exprjE13obj_map_entry7is_usedEv(ptr noundef nonnull align 8 dereferenceable(16) %0) #6 comdat align 2 {
  %2 = alloca ptr, align 8
  store ptr %0, ptr %2, align 8, !tbaa !209
  %3 = load ptr, ptr %2, align 8
  %4 = getelementptr inbounds nuw %"class.obj_map<expr, unsigned int>::obj_map_entry", ptr %3, i32 0, i32 0
  %5 = getelementptr inbounds nuw %"struct.obj_map<expr, unsigned int>::key_data", ptr %4, i32 0, i32 0
  %6 = load ptr, ptr %5, align 8, !tbaa !416
  %7 = icmp ne ptr %6, null
  br i1 %7, label %8, label %13

8:                                                ; preds = %1
  %9 = getelementptr inbounds nuw %"class.obj_map<expr, unsigned int>::obj_map_entry", ptr %3, i32 0, i32 0
  %10 = getelementptr inbounds nuw %"struct.obj_map<expr, unsigned int>::key_data", ptr %9, i32 0, i32 0
  %11 = load ptr, ptr %10, align 8, !tbaa !416
  %12 = icmp ne ptr %11, inttoptr (i64 1 to ptr)
  br label %13

13:                                               ; preds = %8, %1
  %14 = phi i1 [ false, %1 ], [ %12, %8 ]
  ret i1 %14
}

; Function Attrs: mustprogress uwtable
define linkonce_odr hidden noundef i32 @_ZNK14core_hashtableIN7obj_mapI4exprjE13obj_map_entryE8obj_hashINS2_8key_dataEE10default_eqIS5_EE8get_hashERKS5_(ptr noundef nonnull align 8 dereferenceable(20) %0, ptr noundef nonnull align 8 dereferenceable(12) %1) #4 comdat align 2 {
  %3 = alloca ptr, align 8
  %4 = alloca ptr, align 8
  store ptr %0, ptr %3, align 8, !tbaa !402
  store ptr %1, ptr %4, align 8, !tbaa !404
  %5 = load ptr, ptr %3, align 8
  %6 = load ptr, ptr %4, align 8, !tbaa !404
  %7 = call noundef i32 @_ZNK8obj_hashIN7obj_mapI4exprjE8key_dataEEclERKS3_(ptr noundef nonnull align 1 dereferenceable(1) %5, ptr noundef nonnull align 8 dereferenceable(12) %6)
  ret i32 %7
}

; Function Attrs: mustprogress uwtable
define linkonce_odr hidden noundef ptr @_ZNK14core_hashtableIN7obj_mapI4exprjE13obj_map_entryE8obj_hashINS2_8key_dataEE10default_eqIS5_EE9find_coreERKS5_(ptr noundef nonnull align 8 dereferenceable(20) %0, ptr noundef nonnull align 8 dereferenceable(12) %1) #4 comdat align 2 {
  %3 = alloca ptr, align 8
  %4 = alloca ptr, align 8
  %5 = alloca ptr, align 8
  %6 = alloca i32, align 4
  %7 = alloca i32, align 4
  %8 = alloca i32, align 4
  %9 = alloca ptr, align 8
  %10 = alloca ptr, align 8
  %11 = alloca ptr, align 8
  %12 = alloca i32, align 4
  store ptr %0, ptr %4, align 8, !tbaa !402
  store ptr %1, ptr %5, align 8, !tbaa !404
  %13 = load ptr, ptr %4, align 8
  call void @llvm.lifetime.start.p0(i64 4, ptr %6) #3
  %14 = load ptr, ptr %5, align 8, !tbaa !404
  %15 = call noundef i32 @_ZNK14core_hashtableIN7obj_mapI4exprjE13obj_map_entryE8obj_hashINS2_8key_dataEE10default_eqIS5_EE8get_hashERKS5_(ptr noundef nonnull align 8 dereferenceable(20) %13, ptr noundef nonnull align 8 dereferenceable(12) %14)
  store i32 %15, ptr %6, align 4, !tbaa !19
  call void @llvm.lifetime.start.p0(i64 4, ptr %7) #3
  %16 = getelementptr inbounds nuw %class.core_hashtable, ptr %13, i32 0, i32 1
  %17 = load i32, ptr %16, align 8, !tbaa !412
  %18 = sub i32 %17, 1
  store i32 %18, ptr %7, align 4, !tbaa !19
  call void @llvm.lifetime.start.p0(i64 4, ptr %8) #3
  %19 = load i32, ptr %6, align 4, !tbaa !19
  %20 = load i32, ptr %7, align 4, !tbaa !19
  %21 = and i32 %19, %20
  store i32 %21, ptr %8, align 4, !tbaa !19
  call void @llvm.lifetime.start.p0(i64 8, ptr %9) #3
  %22 = getelementptr inbounds nuw %class.core_hashtable, ptr %13, i32 0, i32 0
  %23 = load ptr, ptr %22, align 8, !tbaa !413
  %24 = load i32, ptr %8, align 4, !tbaa !19
  %25 = zext i32 %24 to i64
  %26 = getelementptr inbounds nuw %"class.obj_map<expr, unsigned int>::obj_map_entry", ptr %23, i64 %25
  store ptr %26, ptr %9, align 8, !tbaa !209
  call void @llvm.lifetime.start.p0(i64 8, ptr %10) #3
  %27 = getelementptr inbounds nuw %class.core_hashtable, ptr %13, i32 0, i32 0
  %28 = load ptr, ptr %27, align 8, !tbaa !413
  %29 = getelementptr inbounds nuw %class.core_hashtable, ptr %13, i32 0, i32 1
  %30 = load i32, ptr %29, align 8, !tbaa !412
  %31 = zext i32 %30 to i64
  %32 = getelementptr inbounds nuw %"class.obj_map<expr, unsigned int>::obj_map_entry", ptr %28, i64 %31
  store ptr %32, ptr %10, align 8, !tbaa !209
  call void @llvm.lifetime.start.p0(i64 8, ptr %11) #3
  %33 = load ptr, ptr %9, align 8, !tbaa !209
  store ptr %33, ptr %11, align 8, !tbaa !209
  br label %34

34:                                               ; preds = %61, %2
  %35 = load ptr, ptr %11, align 8, !tbaa !209
  %36 = load ptr, ptr %10, align 8, !tbaa !209
  %37 = icmp ne ptr %35, %36
  br i1 %37, label %38, label %64

38:                                               ; preds = %34
  %39 = load ptr, ptr %11, align 8, !tbaa !209
  %40 = call noundef zeroext i1 @_ZNK7obj_mapI4exprjE13obj_map_entry7is_usedEv(ptr noundef nonnull align 8 dereferenceable(16) %39)
  br i1 %40, label %41, label %54

41:                                               ; preds = %38
  %42 = load ptr, ptr %11, align 8, !tbaa !209
  %43 = call noundef i32 @_ZNK7obj_mapI4exprjE13obj_map_entry8get_hashEv(ptr noundef nonnull align 8 dereferenceable(16) %42)
  %44 = load i32, ptr %6, align 4, !tbaa !19
  %45 = icmp eq i32 %43, %44
  br i1 %45, label %46, label %53

46:                                               ; preds = %41
  %47 = load ptr, ptr %11, align 8, !tbaa !209
  %48 = call noundef nonnull align 8 dereferenceable(12) ptr @_ZN7obj_mapI4exprjE13obj_map_entry8get_dataEv(ptr noundef nonnull align 8 dereferenceable(16) %47)
  %49 = load ptr, ptr %5, align 8, !tbaa !404
  %50 = call noundef zeroext i1 @_ZNK14core_hashtableIN7obj_mapI4exprjE13obj_map_entryE8obj_hashINS2_8key_dataEE10default_eqIS5_EE6equalsERKS5_SB_(ptr noundef nonnull align 8 dereferenceable(20) %13, ptr noundef nonnull align 8 dereferenceable(12) %48, ptr noundef nonnull align 8 dereferenceable(12) %49)
  br i1 %50, label %51, label %53

51:                                               ; preds = %46
  %52 = load ptr, ptr %11, align 8, !tbaa !209
  store ptr %52, ptr %3, align 8
  store i32 1, ptr %12, align 4
  br label %98

53:                                               ; preds = %46, %41
  br label %60

54:                                               ; preds = %38
  %55 = load ptr, ptr %11, align 8, !tbaa !209
  %56 = call noundef zeroext i1 @_ZNK7obj_mapI4exprjE13obj_map_entry7is_freeEv(ptr noundef nonnull align 8 dereferenceable(16) %55)
  br i1 %56, label %57, label %58

57:                                               ; preds = %54
  store ptr null, ptr %3, align 8
  store i32 1, ptr %12, align 4
  br label %98

58:                                               ; preds = %54
  br label %59

59:                                               ; preds = %58
  br label %60

60:                                               ; preds = %59, %53
  br label %61

61:                                               ; preds = %60
  %62 = load ptr, ptr %11, align 8, !tbaa !209
  %63 = getelementptr inbounds nuw %"class.obj_map<expr, unsigned int>::obj_map_entry", ptr %62, i32 1
  store ptr %63, ptr %11, align 8, !tbaa !209
  br label %34, !llvm.loop !619

64:                                               ; preds = %34
  %65 = getelementptr inbounds nuw %class.core_hashtable, ptr %13, i32 0, i32 0
  %66 = load ptr, ptr %65, align 8, !tbaa !413
  store ptr %66, ptr %11, align 8, !tbaa !209
  br label %67

67:                                               ; preds = %94, %64
  %68 = load ptr, ptr %11, align 8, !tbaa !209
  %69 = load ptr, ptr %9, align 8, !tbaa !209
  %70 = icmp ne ptr %68, %69
  br i1 %70, label %71, label %97

71:                                               ; preds = %67
  %72 = load ptr, ptr %11, align 8, !tbaa !209
  %73 = call noundef zeroext i1 @_ZNK7obj_mapI4exprjE13obj_map_entry7is_usedEv(ptr noundef nonnull align 8 dereferenceable(16) %72)
  br i1 %73, label %74, label %87

74:                                               ; preds = %71
  %75 = load ptr, ptr %11, align 8, !tbaa !209
  %76 = call noundef i32 @_ZNK7obj_mapI4exprjE13obj_map_entry8get_hashEv(ptr noundef nonnull align 8 dereferenceable(16) %75)
  %77 = load i32, ptr %6, align 4, !tbaa !19
  %78 = icmp eq i32 %76, %77
  br i1 %78, label %79, label %86

79:                                               ; preds = %74
  %80 = load ptr, ptr %11, align 8, !tbaa !209
  %81 = call noundef nonnull align 8 dereferenceable(12) ptr @_ZN7obj_mapI4exprjE13obj_map_entry8get_dataEv(ptr noundef nonnull align 8 dereferenceable(16) %80)
  %82 = load ptr, ptr %5, align 8, !tbaa !404
  %83 = call noundef zeroext i1 @_ZNK14core_hashtableIN7obj_mapI4exprjE13obj_map_entryE8obj_hashINS2_8key_dataEE10default_eqIS5_EE6equalsERKS5_SB_(ptr noundef nonnull align 8 dereferenceable(20) %13, ptr noundef nonnull align 8 dereferenceable(12) %81, ptr noundef nonnull align 8 dereferenceable(12) %82)
  br i1 %83, label %84, label %86

84:                                               ; preds = %79
  %85 = load ptr, ptr %11, align 8, !tbaa !209
  store ptr %85, ptr %3, align 8
  store i32 1, ptr %12, align 4
  br label %98

86:                                               ; preds = %79, %74
  br label %93

87:                                               ; preds = %71
  %88 = load ptr, ptr %11, align 8, !tbaa !209
  %89 = call noundef zeroext i1 @_ZNK7obj_mapI4exprjE13obj_map_entry7is_freeEv(ptr noundef nonnull align 8 dereferenceable(16) %88)
  br i1 %89, label %90, label %91

90:                                               ; preds = %87
  store ptr null, ptr %3, align 8
  store i32 1, ptr %12, align 4
  br label %98

91:                                               ; preds = %87
  br label %92

92:                                               ; preds = %91
  br label %93

93:                                               ; preds = %92, %86
  br label %94

94:                                               ; preds = %93
  %95 = load ptr, ptr %11, align 8, !tbaa !209
  %96 = getelementptr inbounds nuw %"class.obj_map<expr, unsigned int>::obj_map_entry", ptr %95, i32 1
  store ptr %96, ptr %11, align 8, !tbaa !209
  br label %67, !llvm.loop !620

97:                                               ; preds = %67
  store ptr null, ptr %3, align 8
  store i32 1, ptr %12, align 4
  br label %98

98:                                               ; preds = %97, %90, %84, %57, %51
  call void @llvm.lifetime.end.p0(i64 8, ptr %11) #3
  call void @llvm.lifetime.end.p0(i64 8, ptr %10) #3
  call void @llvm.lifetime.end.p0(i64 8, ptr %9) #3
  call void @llvm.lifetime.end.p0(i64 4, ptr %8) #3
  call void @llvm.lifetime.end.p0(i64 4, ptr %7) #3
  call void @llvm.lifetime.end.p0(i64 4, ptr %6) #3
  %99 = load ptr, ptr %3, align 8
  ret ptr %99
}

; Function Attrs: mustprogress nounwind uwtable
define linkonce_odr hidden void @_ZN7obj_mapI4exprjE8key_dataC2EPS0_(ptr noundef nonnull align 8 dereferenceable(12) %0, ptr noundef %1) unnamed_addr #6 comdat align 2 {
  %3 = alloca ptr, align 8
  %4 = alloca ptr, align 8
  store ptr %0, ptr %3, align 8, !tbaa !404
  store ptr %1, ptr %4, align 8, !tbaa !72
  %5 = load ptr, ptr %3, align 8
  %6 = getelementptr inbounds nuw %"struct.obj_map<expr, unsigned int>::key_data", ptr %5, i32 0, i32 0
  %7 = load ptr, ptr %4, align 8, !tbaa !72
  store ptr %7, ptr %6, align 8, !tbaa !406
  %8 = getelementptr inbounds nuw %"struct.obj_map<expr, unsigned int>::key_data", ptr %5, i32 0, i32 1
  store i32 0, ptr %8, align 8, !tbaa !210
  ret void
}

; Function Attrs: mustprogress nounwind uwtable
define linkonce_odr hidden noundef nonnull align 8 dereferenceable(12) ptr @_ZN7obj_mapI4exprjE13obj_map_entry8get_dataEv(ptr noundef nonnull align 8 dereferenceable(16) %0) #6 comdat align 2 {
  %2 = alloca ptr, align 8
  store ptr %0, ptr %2, align 8, !tbaa !209
  %3 = load ptr, ptr %2, align 8
  %4 = getelementptr inbounds nuw %"class.obj_map<expr, unsigned int>::obj_map_entry", ptr %3, i32 0, i32 0
  ret ptr %4
}

; Function Attrs: mustprogress uwtable
define linkonce_odr hidden noundef ptr @_ZNK7obj_mapI4exprjE9find_coreEPS0_(ptr noundef nonnull align 8 dereferenceable(24) %0, ptr noundef %1) #4 comdat align 2 {
  %3 = alloca ptr, align 8
  %4 = alloca ptr, align 8
  %5 = alloca %"struct.obj_map<expr, unsigned int>::key_data", align 8
  store ptr %0, ptr %3, align 8, !tbaa !207
  store ptr %1, ptr %4, align 8, !tbaa !72
  %6 = load ptr, ptr %3, align 8
  %7 = getelementptr inbounds nuw %class.obj_map, ptr %6, i32 0, i32 0
  call void @llvm.lifetime.start.p0(i64 16, ptr %5) #3
  %8 = load ptr, ptr %4, align 8, !tbaa !72
  call void @_ZN7obj_mapI4exprjE8key_dataC2EPS0_(ptr noundef nonnull align 8 dereferenceable(12) %5, ptr noundef %8)
  %9 = call noundef ptr @_ZNK14core_hashtableIN7obj_mapI4exprjE13obj_map_entryE8obj_hashINS2_8key_dataEE10default_eqIS5_EE9find_coreERKS5_(ptr noundef nonnull align 8 dereferenceable(20) %7, ptr noundef nonnull align 8 dereferenceable(12) %5)
  call void @llvm.lifetime.end.p0(i64 16, ptr %5) #3
  ret ptr %9
}

; Function Attrs: mustprogress uwtable
define linkonce_odr hidden noundef zeroext i1 @_ZNK7obj_mapI4exprjE4findEPS0_Rj(ptr noundef nonnull align 8 dereferenceable(24) %0, ptr noundef %1, ptr noundef nonnull align 4 dereferenceable(4) %2) #4 comdat align 2 {
  %4 = alloca ptr, align 8
  %5 = alloca ptr, align 8
  %6 = alloca ptr, align 8
  %7 = alloca ptr, align 8
  store ptr %0, ptr %4, align 8, !tbaa !207
  store ptr %1, ptr %5, align 8, !tbaa !72
  store ptr %2, ptr %6, align 8, !tbaa !64
  %8 = load ptr, ptr %4, align 8
  call void @llvm.lifetime.start.p0(i64 8, ptr %7) #3
  %9 = load ptr, ptr %5, align 8, !tbaa !72
  %10 = call noundef ptr @_ZNK7obj_mapI4exprjE9find_coreEPS0_(ptr noundef nonnull align 8 dereferenceable(24) %8, ptr noundef %9)
  store ptr %10, ptr %7, align 8, !tbaa !209
  %11 = load ptr, ptr %7, align 8, !tbaa !209
  %12 = icmp ne ptr %11, null
  br i1 %12, label %13, label %19

13:                                               ; preds = %3
  %14 = load ptr, ptr %7, align 8, !tbaa !209
  %15 = call noundef nonnull align 8 dereferenceable(12) ptr @_ZN7obj_mapI4exprjE13obj_map_entry8get_dataEv(ptr noundef nonnull align 8 dereferenceable(16) %14)
  %16 = getelementptr inbounds nuw %"struct.obj_map<expr, unsigned int>::key_data", ptr %15, i32 0, i32 1
  %17 = load i32, ptr %16, align 8, !tbaa !210
  %18 = load ptr, ptr %6, align 8, !tbaa !64
  store i32 %17, ptr %18, align 4, !tbaa !19
  br label %19

19:                                               ; preds = %13, %3
  %20 = load ptr, ptr %7, align 8, !tbaa !209
  %21 = icmp ne ptr null, %20
  call void @llvm.lifetime.end.p0(i64 8, ptr %7) #3
  ret i1 %21
}

; Function Attrs: mustprogress uwtable
define hidden noundef zeroext i1 @_ZNK3euf9solve_eqs10check_occsEP4expr(ptr noundef nonnull align 8 dereferenceable(200) %0, ptr noundef %1) #4 align 2 {
  %3 = alloca i1, align 1
  %4 = alloca ptr, align 8
  %5 = alloca ptr, align 8
  %6 = alloca i32, align 4
  store ptr %0, ptr %4, align 8, !tbaa !3
  store ptr %1, ptr %5, align 8, !tbaa !72
  %7 = load ptr, ptr %4, align 8
  %8 = getelementptr inbounds nuw %"class.euf::solve_eqs", ptr %7, i32 0, i32 2
  %9 = getelementptr inbounds nuw %"struct.euf::solve_eqs::config", ptr %8, i32 0, i32 1
  %10 = load i32, ptr %9, align 4, !tbaa !206
  %11 = icmp eq i32 %10, -1
  br i1 %11, label %12, label %13

12:                                               ; preds = %2
  store i1 true, ptr %3, align 1
  br label %22

13:                                               ; preds = %2
  call void @llvm.lifetime.start.p0(i64 4, ptr %6) #3
  store i32 0, ptr %6, align 4, !tbaa !19
  %14 = getelementptr inbounds nuw %"class.euf::solve_eqs", ptr %7, i32 0, i32 14
  %15 = load ptr, ptr %5, align 8, !tbaa !72
  %16 = call noundef zeroext i1 @_ZNK7obj_mapI4exprjE4findEPS0_Rj(ptr noundef nonnull align 8 dereferenceable(24) %14, ptr noundef %15, ptr noundef nonnull align 4 dereferenceable(4) %6)
  %17 = load i32, ptr %6, align 4, !tbaa !19
  %18 = getelementptr inbounds nuw %"class.euf::solve_eqs", ptr %7, i32 0, i32 2
  %19 = getelementptr inbounds nuw %"struct.euf::solve_eqs::config", ptr %18, i32 0, i32 1
  %20 = load i32, ptr %19, align 4, !tbaa !206
  %21 = icmp ule i32 %17, %20
  store i1 %21, ptr %3, align 1
  call void @llvm.lifetime.end.p0(i64 4, ptr %6) #3
  br label %22

22:                                               ; preds = %13, %12
  %23 = load i1, ptr %3, align 1
  ret i1 %23
}