; Function Attrs: mustprogress nofree norecurse nosync nounwind willreturn memory(read, inaccessiblemem: none) uwtable
define hidden noundef zeroext i1 @_ZNK3euf9solve_eqs10check_occsEP4expr(ptr noundef nonnull readonly align 8 captures(none) dereferenceable(200) %0, ptr noundef readonly captures(address) %1) local_unnamed_addr #9 align 2 {
  %3 = getelementptr inbounds nuw i8, ptr %0, i64 44
  %4 = load i32, ptr %3, align 4, !tbaa !93
  %5 = icmp eq i32 %4, -1
  br i1 %5, label %38, label %6

6:                                                ; preds = %2
  %7 = getelementptr inbounds nuw i8, ptr %0, i64 176
  %8 = getelementptr inbounds nuw i8, ptr %1, i64 12
  %9 = load i32, ptr %8, align 4, !tbaa !112
  %10 = getelementptr inbounds nuw i8, ptr %0, i64 184
  %11 = load i32, ptr %10, align 8, !tbaa !113
  %12 = add i32 %11, -1
  %13 = and i32 %12, %9
  %14 = load ptr, ptr %7, align 8, !tbaa !114
  %15 = zext i32 %13 to i64
  %16 = getelementptr inbounds nuw %"class.obj_map<expr, unsigned int>::obj_map_entry", ptr %14, i64 %15
  %17 = zext i32 %11 to i64
  %18 = getelementptr inbounds nuw %"class.obj_map<expr, unsigned int>::obj_map_entry", ptr %14, i64 %17
  %.not35.i.i.i = icmp eq i32 %13, %11
  br i1 %.not35.i.i.i, label %.preheader.i.i.i, label %.lr.ph.i.i.i

.preheader.i.i.i:                                 ; preds = %25, %6
  %.not2737.i.i.i = icmp eq i32 %13, 0
  br i1 %.not2737.i.i.i, label %_ZNK7obj_mapI4exprjE4findEPS0_Rj.exit, label %.lr.ph39.i.i.i

.lr.ph.i.i.i:                                     ; preds = %6, %25
  %.036.i.i.i = phi ptr [ %26, %25 ], [ %16, %6 ]
  %19 = load ptr, ptr %.036.i.i.i, align 8, !tbaa !115
  %magicptr30.i.i.i = ptrtoint ptr %19 to i64
  switch i64 %magicptr30.i.i.i, label %20 [
    i64 0, label %_ZNK7obj_mapI4exprjE4findEPS0_Rj.exit
    i64 1, label %25
  ]

20:                                               ; preds = %.lr.ph.i.i.i
  %21 = getelementptr inbounds nuw i8, ptr %19, i64 12
  %22 = load i32, ptr %21, align 4, !tbaa !112
  %23 = icmp eq i32 %22, %9
  %24 = icmp eq ptr %19, %1
  %or.cond.i.i.i = and i1 %24, %23
  br i1 %or.cond.i.i.i, label %_ZNK7obj_mapI4exprjE9find_coreEPS0_.exit.i, label %25

25:                                               ; preds = %20, %.lr.ph.i.i.i
  %26 = getelementptr inbounds nuw i8, ptr %.036.i.i.i, i64 16
  %.not.i.i.i = icmp eq ptr %26, %18
  br i1 %.not.i.i.i, label %.preheader.i.i.i, label %.lr.ph.i.i.i, !llvm.loop !118

.lr.ph39.i.i.i:                                   ; preds = %.preheader.i.i.i, %33
  %.138.i.i.i = phi ptr [ %34, %33 ], [ %14, %.preheader.i.i.i ]
  %27 = load ptr, ptr %.138.i.i.i, align 8, !tbaa !115
  %magicptr32.i.i.i = ptrtoint ptr %27 to i64
  switch i64 %magicptr32.i.i.i, label %28 [
    i64 0, label %_ZNK7obj_mapI4exprjE4findEPS0_Rj.exit
    i64 1, label %33
  ]

28:                                               ; preds = %.lr.ph39.i.i.i
  %29 = getelementptr inbounds nuw i8, ptr %27, i64 12
  %30 = load i32, ptr %29, align 4, !tbaa !112
  %31 = icmp eq i32 %30, %9
  %32 = icmp eq ptr %27, %1
  %or.cond31.i.i.i = and i1 %32, %31
  br i1 %or.cond31.i.i.i, label %_ZNK7obj_mapI4exprjE9find_coreEPS0_.exit.i, label %33

33:                                               ; preds = %28, %.lr.ph39.i.i.i
  %34 = getelementptr inbounds nuw i8, ptr %.138.i.i.i, i64 16
  %.not27.i.i.i = icmp eq ptr %34, %16
  br i1 %.not27.i.i.i, label %_ZNK7obj_mapI4exprjE4findEPS0_Rj.exit, label %.lr.ph39.i.i.i, !llvm.loop !119

_ZNK7obj_mapI4exprjE9find_coreEPS0_.exit.i:       ; preds = %20, %28
  %.026.i.i.i = phi ptr [ %.138.i.i.i, %28 ], [ %.036.i.i.i, %20 ]
  %35 = getelementptr inbounds nuw i8, ptr %.026.i.i.i, i64 8
  %36 = load i32, ptr %35, align 8, !tbaa !120
  br label %_ZNK7obj_mapI4exprjE4findEPS0_Rj.exit

_ZNK7obj_mapI4exprjE4findEPS0_Rj.exit:            ; preds = %.lr.ph.i.i.i, %.lr.ph39.i.i.i, %33, %.preheader.i.i.i, %_ZNK7obj_mapI4exprjE9find_coreEPS0_.exit.i
  %.03 = phi i32 [ 0, %.preheader.i.i.i ], [ %36, %_ZNK7obj_mapI4exprjE9find_coreEPS0_.exit.i ], [ 0, %33 ], [ 0, %.lr.ph39.i.i.i ], [ 0, %.lr.ph.i.i.i ]
  %37 = icmp ule i32 %.03, %4
  br label %38

38:                                               ; preds = %2, %_ZNK7obj_mapI4exprjE4findEPS0_Rj.exit
  %.0 = phi i1 [ %37, %_ZNK7obj_mapI4exprjE4findEPS0_Rj.exit ], [ true, %2 ]
  ret i1 %.0
}